; Function Attrs: mustprogress nounwind uwtable
define internal fastcc void @"_ZSt13__adjust_heapIPSt4pairIPKN4llvm3UseEjElS5_N9__gnu_cxx5__ops15_Iter_comp_iterIZL24predictValueUseListOrderPKNS1_5ValueEjRKNS1_9MapVectorISC_jNS1_8DenseMapISC_jNS1_12DenseMapInfoISC_vEENS1_6detail12DenseMapPairISC_jEEEENS1_11SmallVectorIS0_ISC_jELj0EEEEEE3$_0EEEvT_T0_SU_T1_T2_"(ptr nocapture noundef %0, i64 noundef %1, i64 noundef %2, ptr %3, i32 %4, ptr nocapture noundef readonly byval(%"struct.__gnu_cxx::__ops::_Iter_comp_iter") align 8 %5) unnamed_addr #1 {
  %7 = alloca %"struct.__gnu_cxx::__ops::_Iter_comp_val", align 8
  %8 = add nsw i64 %2, -1
  %9 = sdiv i64 %8, 2
  %10 = icmp slt i64 %1, %9
  br i1 %10, label %.lr.ph, label %._crit_edge

.lr.ph:                                           ; preds = %6, %.lr.ph
  %.031 = phi i64 [ %spec.select, %.lr.ph ], [ %1, %6 ]
  %11 = shl i64 %.031, 1
  %12 = add i64 %11, 2
  %13 = getelementptr inbounds %"struct.std::pair.417", ptr %0, i64 %12
  %14 = or disjoint i64 %11, 1
  %15 = getelementptr inbounds %"struct.std::pair.417", ptr %0, i64 %14
  %.val = load ptr, ptr %13, align 8
  %.val30 = load ptr, ptr %15, align 8
  %16 = call fastcc noundef zeroext i1 @"_ZZL24predictValueUseListOrderPKN4llvm5ValueEjRKNS_9MapVectorIS2_jNS_8DenseMapIS2_jNS_12DenseMapInfoIS2_vEENS_6detail12DenseMapPairIS2_jEEEENS_11SmallVectorISt4pairIS2_jELj0EEEEEENK3$_0clERKSC_IPKNS_3UseEjESO_"(ptr noundef nonnull readonly align 8 dereferenceable(24) %5, ptr %.val, ptr %.val30)
  %spec.select = select i1 %16, i64 %14, i64 %12
  %17 = getelementptr inbounds %"struct.std::pair.417", ptr %0, i64 %spec.select
  %18 = getelementptr inbounds %"struct.std::pair.417", ptr %0, i64 %.031
  %19 = load ptr, ptr %17, align 8
  store ptr %19, ptr %18, align 8
  %20 = getelementptr inbounds nuw i8, ptr %17, i64 8
  %21 = load i32, ptr %20, align 4
  %22 = getelementptr inbounds nuw i8, ptr %18, i64 8
  store i32 %21, ptr %22, align 8
  %23 = icmp slt i64 %spec.select, %9
  br i1 %23, label %.lr.ph, label %._crit_edge, !llvm.loop !245

._crit_edge:                                      ; preds = %.lr.ph, %6
  %.0.lcssa = phi i64 [ %1, %6 ], [ %spec.select, %.lr.ph ]
  %24 = and i64 %2, 1
  %25 = icmp eq i64 %24, 0
  br i1 %25, label %26, label %39

26:                                               ; preds = %._crit_edge
  %27 = add nsw i64 %2, -2
  %28 = ashr exact i64 %27, 1
  %29 = icmp eq i64 %.0.lcssa, %28
  br i1 %29, label %30, label %39

30:                                               ; preds = %26
  %31 = shl nsw i64 %.0.lcssa, 1
  %32 = or disjoint i64 %31, 1
  %33 = getelementptr inbounds %"struct.std::pair.417", ptr %0, i64 %32
  %34 = getelementptr inbounds %"struct.std::pair.417", ptr %0, i64 %.0.lcssa
  %35 = load ptr, ptr %33, align 8
  store ptr %35, ptr %34, align 8
  %36 = getelementptr inbounds nuw i8, ptr %33, i64 8
  %37 = load i32, ptr %36, align 4
  %38 = getelementptr inbounds nuw i8, ptr %34, i64 8
  store i32 %37, ptr %38, align 8
  br label %39

39:                                               ; preds = %30, %26, %._crit_edge
  %.1 = phi i64 [ %32, %30 ], [ %.0.lcssa, %26 ], [ %.0.lcssa, %._crit_edge ]
  call void @llvm.memcpy.p0.p0.i64(ptr noundef nonnull align 8 dereferenceable(24) %7, ptr noundef nonnull readonly align 8 dereferenceable(24) %5, i64 24, i1 false)
  %40 = icmp sgt i64 %.1, %1
  br i1 %40, label %.lr.ph.i, label %"_ZSt11__push_heapIPSt4pairIPKN4llvm3UseEjElS5_N9__gnu_cxx5__ops14_Iter_comp_valIZL24predictValueUseListOrderPKNS1_5ValueEjRKNS1_9MapVectorISC_jNS1_8DenseMapISC_jNS1_12DenseMapInfoISC_vEENS1_6detail12DenseMapPairISC_jEEEENS1_11SmallVectorIS0_ISC_jELj0EEEEEE3$_0EEEvT_T0_SU_T1_RT2_.exit"

.lr.ph.i:                                         ; preds = %39, %43
  %.01317.i = phi i64 [ %.018.i, %43 ], [ %.1, %39 ]
  %.018.in.i = add nsw i64 %.01317.i, -1
  %.018.i = sdiv i64 %.018.in.i, 2
  %41 = getelementptr inbounds %"struct.std::pair.417", ptr %0, i64 %.018.i
  %.val.i = load ptr, ptr %41, align 8
  %42 = call fastcc noundef zeroext i1 @"_ZZL24predictValueUseListOrderPKN4llvm5ValueEjRKNS_9MapVectorIS2_jNS_8DenseMapIS2_jNS_12DenseMapInfoIS2_vEENS_6detail12DenseMapPairIS2_jEEEENS_11SmallVectorISt4pairIS2_jELj0EEEEEENK3$_0clERKSC_IPKNS_3UseEjESO_"(ptr noundef nonnull readonly align 8 dereferenceable(24) %7, ptr %.val.i, ptr %3)
  br i1 %42, label %43, label %"_ZSt11__push_heapIPSt4pairIPKN4llvm3UseEjElS5_N9__gnu_cxx5__ops14_Iter_comp_valIZL24predictValueUseListOrderPKNS1_5ValueEjRKNS1_9MapVectorISC_jNS1_8DenseMapISC_jNS1_12DenseMapInfoISC_vEENS1_6detail12DenseMapPairISC_jEEEENS1_11SmallVectorIS0_ISC_jELj0EEEEEE3$_0EEEvT_T0_SU_T1_RT2_.exit"

43:                                               ; preds = %.lr.ph.i
  %44 = getelementptr inbounds %"struct.std::pair.417", ptr %0, i64 %.01317.i
  %45 = load ptr, ptr %41, align 8
  store ptr %45, ptr %44, align 8
  %46 = getelementptr inbounds nuw i8, ptr %41, i64 8
  %47 = load i32, ptr %46, align 4
  %48 = getelementptr inbounds nuw i8, ptr %44, i64 8
  store i32 %47, ptr %48, align 8
  %49 = icmp sgt i64 %.018.i, %1
  br i1 %49, label %.lr.ph.i, label %"_ZSt11__push_heapIPSt4pairIPKN4llvm3UseEjElS5_N9__gnu_cxx5__ops14_Iter_comp_valIZL24predictValueUseListOrderPKNS1_5ValueEjRKNS1_9MapVectorISC_jNS1_8DenseMapISC_jNS1_12DenseMapInfoISC_vEENS1_6detail12DenseMapPairISC_jEEEENS1_11SmallVectorIS0_ISC_jELj0EEEEEE3$_0EEEvT_T0_SU_T1_RT2_.exit", !llvm.loop !246

"_ZSt11__push_heapIPSt4pairIPKN4llvm3UseEjElS5_N9__gnu_cxx5__ops14_Iter_comp_valIZL24predictValueUseListOrderPKNS1_5ValueEjRKNS1_9MapVectorISC_jNS1_8DenseMapISC_jNS1_12DenseMapInfoISC_vEENS1_6detail12DenseMapPairISC_jEEEENS1_11SmallVectorIS0_ISC_jELj0EEEEEE3$_0EEEvT_T0_SU_T1_RT2_.exit": ; preds = %.lr.ph.i, %43, %39
  %.013.lcssa.i = phi i64 [ %.1, %39 ], [ %.01317.i, %.lr.ph.i ], [ %.018.i, %43 ]
  %50 = getelementptr inbounds %"struct.std::pair.417", ptr %0, i64 %.013.lcssa.i
  store ptr %3, ptr %50, align 8
  %51 = getelementptr inbounds nuw i8, ptr %50, i64 8
  store i32 %4, ptr %51, align 8
  ret void
}